target datalayout = "e-m:e-p270:32:32-p271:32:32-p272:64:64-i64:64-i128:128-f80:128-n8:16:32:64-S128"
target triple = "x86_64-pc-linux-gnu"

%struct.linger = type { i32, i32 }
%struct.uv_tcp_s = type { ptr, ptr, i32, ptr, %struct.uv__queue, %union.anon, ptr, i32, i64, ptr, ptr, ptr, ptr, %struct.uv__io_s, %struct.uv__queue, %struct.uv__queue, ptr, i32, i32, ptr }
%union.anon = type { [4 x ptr] }
%struct.uv__io_s = type { ptr, %struct.uv__queue, %struct.uv__queue, i32, i32, i32 }
%struct.uv__queue = type { ptr, ptr }

@__const.uv_tcp_close_reset.l = private unnamed_addr constant %struct.linger { i32 1, i32 0 }, align 4

; Function Attrs: nounwind uwtable
define dso_local i32 @uv_tcp_close_reset(ptr noundef %0, ptr noundef %1) #0 {
  %3 = alloca i32, align 4
  %4 = alloca ptr, align 8
  %5 = alloca ptr, align 8
  %6 = alloca i32, align 4
  %7 = alloca %struct.linger, align 4
  %8 = alloca i32, align 4
  store ptr %0, ptr %4, align 8
  store ptr %1, ptr %5, align 8
  call void @llvm.lifetime.start.p0(i64 4, ptr %6) #8
  call void @llvm.lifetime.start.p0(i64 8, ptr %7) #8
  call void @llvm.memcpy.p0.p0.i64(ptr align 4 %7, ptr align 4 @__const.uv_tcp_close_reset.l, i64 8, i1 false)
  %9 = load ptr, ptr %4, align 8
  %10 = getelementptr inbounds nuw %struct.uv_tcp_s, ptr %9, i32 0, i32 12
  %11 = load ptr, ptr %10, align 8
  %12 = icmp ne ptr %11, null
  br i1 %12, label %13, label %14

13:                                               ; preds = %2
  store i32 -22, ptr %3, align 4
  store i32 1, ptr %8, align 4
  br label %36

14:                                               ; preds = %2
  %15 = load ptr, ptr %4, align 8
  %16 = getelementptr inbounds nuw %struct.uv_tcp_s, ptr %15, i32 0, i32 13
  %17 = getelementptr inbounds nuw %struct.uv__io_s, ptr %16, i32 0, i32 5
  %18 = load i32, ptr %17, align 8
  store i32 %18, ptr %6, align 4
  %19 = load i32, ptr %6, align 4
  %20 = call i32 @setsockopt(i32 noundef %19, i32 noundef 1, i32 noundef 13, ptr noundef %7, i32 noundef 8) #8
  %21 = icmp ne i32 0, %20
  br i1 %21, label %22, label %33

22:                                               ; preds = %14
  %23 = call ptr @__errno_location() #9
  %24 = load i32, ptr %23, align 4
  %25 = icmp eq i32 %24, 22
  br i1 %25, label %26, label %28

26:                                               ; preds = %22
  %27 = call ptr @__errno_location() #9
  store i32 0, ptr %27, align 4
  br label %32

28:                                               ; preds = %22
  %29 = call ptr @__errno_location() #9
  %30 = load i32, ptr %29, align 4
  %31 = sub nsw i32 0, %30
  store i32 %31, ptr %3, align 4
  store i32 1, ptr %8, align 4
  br label %36

32:                                               ; preds = %26
  br label %33

33:                                               ; preds = %32, %14
  %34 = load ptr, ptr %4, align 8
  %35 = load ptr, ptr %5, align 8
  call void @uv_close(ptr noundef %34, ptr noundef %35)
  store i32 0, ptr %3, align 4
  store i32 1, ptr %8, align 4
  br label %36

36:                                               ; preds = %33, %28, %13
  call void @llvm.lifetime.end.p0(i64 8, ptr %7) #8
  call void @llvm.lifetime.end.p0(i64 4, ptr %6) #8
  %37 = load i32, ptr %3, align 4
  ret i32 %37
}