; Function Attrs: nounwind uwtable
define dso_local range(i32 -2147483647, -2147483648) i32 @uv_tcp_close_reset(ptr noundef %0, ptr noundef %1) local_unnamed_addr #0 {
  %3 = alloca %struct.linger, align 8
  call void @llvm.lifetime.start.p0(i64 8, ptr nonnull %3) #7
  store i64 1, ptr %3, align 8
  %4 = getelementptr inbounds nuw i8, ptr %0, i64 128
  %5 = load ptr, ptr %4, align 8
  %.not = icmp eq ptr %5, null
  br i1 %.not, label %6, label %18

6:                                                ; preds = %2
  %7 = getelementptr inbounds nuw i8, ptr %0, i64 184
  %8 = load i32, ptr %7, align 8
  %9 = call i32 @setsockopt(i32 noundef %8, i32 noundef 1, i32 noundef 13, ptr noundef nonnull %3, i32 noundef 8) #7
  %.not6 = icmp eq i32 %9, 0
  br i1 %.not6, label %17, label %10

10:                                               ; preds = %6
  %11 = tail call ptr @__errno_location() #8
  %12 = load i32, ptr %11, align 4
  %13 = icmp eq i32 %12, 22
  br i1 %13, label %14, label %15

14:                                               ; preds = %10
  store i32 0, ptr %11, align 4
  br label %17

15:                                               ; preds = %10
  %16 = sub nsw i32 0, %12
  br label %18

17:                                               ; preds = %14, %6
  call void @uv_close(ptr noundef nonnull %0, ptr noundef %1) #7
  br label %18

18:                                               ; preds = %2, %17, %15
  %.0 = phi i32 [ 0, %17 ], [ %16, %15 ], [ -22, %2 ]
  call void @llvm.lifetime.end.p0(i64 8, ptr nonnull %3) #7
  ret i32 %.0
}